target datalayout = "e-m:e-p270:32:32-p271:32:32-p272:64:64-i64:64-i128:128-f80:128-n8:16:32:64-S128"
target triple = "x86_64-pc-linux-gnu"

; Function Attrs: nounwind uwtable
define dso_local i32 @finalize_colopts(ptr noundef %0, i32 noundef %1) #0 {
  %3 = alloca ptr, align 8
  %4 = alloca i32, align 4
  store ptr %0, ptr %3, align 8, !tbaa !41
  store i32 %1, ptr %4, align 4, !tbaa !9
  %5 = load ptr, ptr %3, align 8, !tbaa !41
  %6 = load i32, ptr %5, align 4, !tbaa !9
  %7 = and i32 %6, 48
  %8 = icmp eq i32 %7, 32
  br i1 %8, label %9, label %28

9:                                                ; preds = %2
  %10 = load i32, ptr %4, align 4, !tbaa !9
  %11 = icmp slt i32 %10, 0
  br i1 %11, label %12, label %14

12:                                               ; preds = %9
  %13 = call i32 @isatty(i32 noundef 1) #9
  store i32 %13, ptr %4, align 4, !tbaa !9
  br label %14

14:                                               ; preds = %12, %9
  %15 = load ptr, ptr %3, align 8, !tbaa !41
  %16 = load i32, ptr %15, align 4, !tbaa !9
  %17 = and i32 %16, -49
  store i32 %17, ptr %15, align 4, !tbaa !9
  %18 = load i32, ptr %4, align 4, !tbaa !9
  %19 = icmp ne i32 %18, 0
  br i1 %19, label %23, label %20

20:                                               ; preds = %14
  %21 = call i32 @pager_in_use()
  %22 = icmp ne i32 %21, 0
  br i1 %22, label %23, label %27

23:                                               ; preds = %20, %14
  %24 = load ptr, ptr %3, align 8, !tbaa !41
  %25 = load i32, ptr %24, align 4, !tbaa !9
  %26 = or i32 %25, 16
  store i32 %26, ptr %24, align 4, !tbaa !9
  br label %27

27:                                               ; preds = %23, %20
  br label %28

28:                                               ; preds = %27, %2
  ret i32 0
}