; Function Attrs: nounwind uwtable
define dso_local noundef i32 @finalize_colopts(ptr noundef captures(none) %0, i32 noundef %1) local_unnamed_addr #0 {
  %3 = load i32, ptr %0, align 4, !tbaa !23
  %4 = and i32 %3, 48
  %5 = icmp eq i32 %4, 32
  br i1 %5, label %6, label %18

6:                                                ; preds = %2
  %7 = icmp slt i32 %1, 0
  br i1 %7, label %8, label %10

8:                                                ; preds = %6
  %9 = tail call i32 @isatty(i32 noundef 1) #10
  %.pre = load i32, ptr %0, align 4, !tbaa !23
  br label %10

10:                                               ; preds = %8, %6
  %11 = phi i32 [ %.pre, %8 ], [ %3, %6 ]
  %.0 = phi i32 [ %9, %8 ], [ %1, %6 ]
  %12 = and i32 %11, -49
  store i32 %12, ptr %0, align 4, !tbaa !23
  %.not = icmp eq i32 %.0, 0
  br i1 %.not, label %13, label %15

13:                                               ; preds = %10
  %14 = tail call i32 @pager_in_use() #10
  %.not5 = icmp eq i32 %14, 0
  br i1 %.not5, label %18, label %._crit_edge

._crit_edge:                                      ; preds = %13
  %.pre6 = load i32, ptr %0, align 4, !tbaa !23
  br label %15

15:                                               ; preds = %._crit_edge, %10
  %16 = phi i32 [ %.pre6, %._crit_edge ], [ %12, %10 ]
  %17 = or i32 %16, 16
  store i32 %17, ptr %0, align 4, !tbaa !23
  br label %18

18:                                               ; preds = %13, %15, %2
  ret i32 0
}